target datalayout = "e-m:e-p270:32:32-p271:32:32-p272:64:64-i64:64-i128:128-f80:128-n8:16:32:64-S128"
target triple = "x86_64-pc-linux-gnu"

%struct.fast_fallback_inetsock_arg = type { i64, i64, %struct.anon, %struct.anon, i32, i64, i64, ptr, ptr, ptr, i32, i32, [2 x ptr], ptr, %struct.rb_fdset_t, %struct.rb_fdset_t, i32, i32, ptr, i64 }
%struct.anon = type { i64, i64, ptr }
%struct.rb_fdset_t = type { i32, ptr }
%struct.addrinfo = type { i32, i32, i32, i32, i32, ptr, ptr, ptr }
%struct.fast_fallback_getaddrinfo_shared = type { i32, i32, ptr, ptr, %union.pthread_mutex_t, [0 x %struct.fast_fallback_getaddrinfo_entry] }
%union.pthread_mutex_t = type { %struct.__pthread_mutex_s }
%struct.__pthread_mutex_s = type { i32, i32, i32, i32, i32, i16, i16, %struct.__pthread_internal_list }
%struct.__pthread_internal_list = type { ptr, ptr }
%struct.fast_fallback_getaddrinfo_entry = type { i32, i32, i32, %struct.addrinfo, ptr, ptr, i32, i64, i32 }

; Function Attrs: nounwind sspstrong uwtable
define internal i64 @fast_fallback_inetsock_cleanup(i64 noundef %0) #0 {
  %2 = alloca i64, align 8
  %3 = alloca ptr, align 8
  %4 = alloca ptr, align 8
  %5 = alloca i32, align 4
  %6 = alloca [2 x i32], align 4
  %7 = alloca i32, align 4
  %8 = alloca i32, align 4
  %9 = alloca i32, align 4
  %10 = alloca i32, align 4
  %11 = alloca i32, align 4
  %12 = alloca i32, align 4
  store i64 %0, ptr %2, align 8, !tbaa !6
  call void @llvm.lifetime.start.p0(i64 8, ptr %3) #25
  %13 = load i64, ptr %2, align 8, !tbaa !6
  %14 = inttoptr i64 %13 to ptr
  store ptr %14, ptr %3, align 8, !tbaa !63
  call void @llvm.lifetime.start.p0(i64 8, ptr %4) #25
  %15 = load ptr, ptr %3, align 8, !tbaa !63
  %16 = getelementptr inbounds nuw %struct.fast_fallback_inetsock_arg, ptr %15, i32 0, i32 13
  %17 = load ptr, ptr %16, align 8, !tbaa !79
  store ptr %17, ptr %4, align 8, !tbaa !110
  %18 = load ptr, ptr %3, align 8, !tbaa !63
  %19 = getelementptr inbounds nuw %struct.fast_fallback_inetsock_arg, ptr %18, i32 0, i32 2
  %20 = getelementptr inbounds nuw %struct.anon, ptr %19, i32 0, i32 2
  %21 = load ptr, ptr %20, align 8, !tbaa !36
  %22 = icmp ne ptr %21, null
  br i1 %22, label %23, label %31

23:                                               ; preds = %1
  %24 = load ptr, ptr %3, align 8, !tbaa !63
  %25 = getelementptr inbounds nuw %struct.fast_fallback_inetsock_arg, ptr %24, i32 0, i32 2
  %26 = getelementptr inbounds nuw %struct.anon, ptr %25, i32 0, i32 2
  %27 = load ptr, ptr %26, align 8, !tbaa !36
  call void @rb_freeaddrinfo(ptr noundef %27)
  %28 = load ptr, ptr %3, align 8, !tbaa !63
  %29 = getelementptr inbounds nuw %struct.fast_fallback_inetsock_arg, ptr %28, i32 0, i32 2
  %30 = getelementptr inbounds nuw %struct.anon, ptr %29, i32 0, i32 2
  store ptr null, ptr %30, align 8, !tbaa !36
  br label %31

31:                                               ; preds = %23, %1
  %32 = load ptr, ptr %3, align 8, !tbaa !63
  %33 = getelementptr inbounds nuw %struct.fast_fallback_inetsock_arg, ptr %32, i32 0, i32 3
  %34 = getelementptr inbounds nuw %struct.anon, ptr %33, i32 0, i32 2
  %35 = load ptr, ptr %34, align 8, !tbaa !39
  %36 = icmp ne ptr %35, null
  br i1 %36, label %37, label %45

37:                                               ; preds = %31
  %38 = load ptr, ptr %3, align 8, !tbaa !63
  %39 = getelementptr inbounds nuw %struct.fast_fallback_inetsock_arg, ptr %38, i32 0, i32 3
  %40 = getelementptr inbounds nuw %struct.anon, ptr %39, i32 0, i32 2
  %41 = load ptr, ptr %40, align 8, !tbaa !39
  call void @rb_freeaddrinfo(ptr noundef %41)
  %42 = load ptr, ptr %3, align 8, !tbaa !63
  %43 = getelementptr inbounds nuw %struct.fast_fallback_inetsock_arg, ptr %42, i32 0, i32 3
  %44 = getelementptr inbounds nuw %struct.anon, ptr %43, i32 0, i32 2
  store ptr null, ptr %44, align 8, !tbaa !39
  br label %45

45:                                               ; preds = %37, %31
  %46 = load ptr, ptr %3, align 8, !tbaa !63
  %47 = getelementptr inbounds nuw %struct.fast_fallback_inetsock_arg, ptr %46, i32 0, i32 16
  %48 = load i32, ptr %47, align 8, !tbaa !78
  %49 = icmp ne i32 %48, -1
  br i1 %49, label %50, label %55

50:                                               ; preds = %45
  %51 = load ptr, ptr %3, align 8, !tbaa !63
  %52 = getelementptr inbounds nuw %struct.fast_fallback_inetsock_arg, ptr %51, i32 0, i32 16
  %53 = load i32, ptr %52, align 8, !tbaa !78
  %54 = call i32 @close(i32 noundef %53)
  br label %55

55:                                               ; preds = %50, %45
  %56 = load ptr, ptr %4, align 8, !tbaa !110
  %57 = icmp ne ptr %56, null
  br i1 %57, label %58, label %156

58:                                               ; preds = %55
  %59 = load ptr, ptr %4, align 8, !tbaa !110
  %60 = getelementptr inbounds nuw %struct.fast_fallback_getaddrinfo_shared, ptr %59, i32 0, i32 0
  %61 = load i32, ptr %60, align 8, !tbaa !10
  %62 = icmp ne i32 %61, -1
  br i1 %62, label %63, label %68

63:                                               ; preds = %58
  %64 = load ptr, ptr %4, align 8, !tbaa !110
  %65 = getelementptr inbounds nuw %struct.fast_fallback_getaddrinfo_shared, ptr %64, i32 0, i32 0
  %66 = load i32, ptr %65, align 8, !tbaa !10
  %67 = call i32 @close(i32 noundef %66)
  br label %68

68:                                               ; preds = %63, %58
  %69 = load ptr, ptr %4, align 8, !tbaa !110
  %70 = getelementptr inbounds nuw %struct.fast_fallback_getaddrinfo_shared, ptr %69, i32 0, i32 0
  store i32 -1, ptr %70, align 8, !tbaa !10
  call void @llvm.lifetime.start.p0(i64 4, ptr %5) #25
  store i32 0, ptr %5, align 4, !tbaa !10
  call void @llvm.lifetime.start.p0(i64 8, ptr %6) #25
  call void @llvm.memset.p0.i64(ptr align 4 %6, i8 0, i64 8, i1 false)
  %71 = load ptr, ptr %4, align 8, !tbaa !110
  %72 = getelementptr inbounds nuw %struct.fast_fallback_getaddrinfo_shared, ptr %71, i32 0, i32 4
  call void @rb_nativethread_lock_lock(ptr noundef %72)
  call void @llvm.lifetime.start.p0(i64 4, ptr %7) #25
  store i32 0, ptr %7, align 4, !tbaa !10
  br label %73

73:                                               ; preds = %104, %68
  %74 = load i32, ptr %7, align 4, !tbaa !10
  %75 = load ptr, ptr %3, align 8, !tbaa !63
  %76 = getelementptr inbounds nuw %struct.fast_fallback_inetsock_arg, ptr %75, i32 0, i32 10
  %77 = load i32, ptr %76, align 8, !tbaa !48
  %78 = icmp slt i32 %74, %77
  br i1 %78, label %80, label %79

79:                                               ; preds = %73
  call void @llvm.lifetime.end.p0(i64 4, ptr %7) #25
  br label %107

80:                                               ; preds = %73
  %81 = load ptr, ptr %3, align 8, !tbaa !63
  %82 = getelementptr inbounds nuw %struct.fast_fallback_inetsock_arg, ptr %81, i32 0, i32 12
  %83 = load i32, ptr %7, align 4, !tbaa !10
  %84 = sext i32 %83 to i64
  %85 = getelementptr inbounds [2 x ptr], ptr %82, i64 0, i64 %84
  %86 = load ptr, ptr %85, align 8, !tbaa !80
  %87 = icmp ne ptr %86, null
  br i1 %87, label %88, label %103

88:                                               ; preds = %80
  %89 = load ptr, ptr %3, align 8, !tbaa !63
  %90 = getelementptr inbounds nuw %struct.fast_fallback_inetsock_arg, ptr %89, i32 0, i32 12
  %91 = load i32, ptr %7, align 4, !tbaa !10
  %92 = sext i32 %91 to i64
  %93 = getelementptr inbounds [2 x ptr], ptr %90, i64 0, i64 %92
  %94 = load ptr, ptr %93, align 8, !tbaa !80
  %95 = getelementptr inbounds nuw %struct.fast_fallback_getaddrinfo_entry, ptr %94, i32 0, i32 2
  %96 = load i32, ptr %95, align 8, !tbaa !88
  %97 = add nsw i32 %96, -1
  store i32 %97, ptr %95, align 8, !tbaa !88
  %98 = icmp eq i32 %97, 0
  br i1 %98, label %99, label %103

99:                                               ; preds = %88
  %100 = load i32, ptr %7, align 4, !tbaa !10
  %101 = sext i32 %100 to i64
  %102 = getelementptr inbounds [2 x i32], ptr %6, i64 0, i64 %101
  store i32 1, ptr %102, align 4, !tbaa !10
  br label %103

103:                                              ; preds = %99, %88, %80
  br label %104

104:                                              ; preds = %103
  %105 = load i32, ptr %7, align 4, !tbaa !10
  %106 = add nsw i32 %105, 1
  store i32 %106, ptr %7, align 4, !tbaa !10
  br label %73, !llvm.loop !111

107:                                              ; preds = %79
  %108 = load ptr, ptr %4, align 8, !tbaa !110
  %109 = getelementptr inbounds nuw %struct.fast_fallback_getaddrinfo_shared, ptr %108, i32 0, i32 1
  %110 = load i32, ptr %109, align 4, !tbaa !10
  %111 = add nsw i32 %110, -1
  store i32 %111, ptr %109, align 4, !tbaa !10
  %112 = icmp eq i32 %111, 0
  br i1 %112, label %113, label %114

113:                                              ; preds = %107
  store i32 1, ptr %5, align 4, !tbaa !10
  br label %114

114:                                              ; preds = %113, %107
  %115 = load ptr, ptr %4, align 8, !tbaa !110
  %116 = getelementptr inbounds nuw %struct.fast_fallback_getaddrinfo_shared, ptr %115, i32 0, i32 4
  call void @rb_nativethread_lock_unlock(ptr noundef %116)
  call void @llvm.lifetime.start.p0(i64 4, ptr %8) #25
  store i32 0, ptr %8, align 4, !tbaa !10
  br label %117

117:                                              ; preds = %145, %114
  %118 = load i32, ptr %8, align 4, !tbaa !10
  %119 = load ptr, ptr %3, align 8, !tbaa !63
  %120 = getelementptr inbounds nuw %struct.fast_fallback_inetsock_arg, ptr %119, i32 0, i32 10
  %121 = load i32, ptr %120, align 8, !tbaa !48
  %122 = icmp slt i32 %118, %121
  br i1 %122, label %124, label %123

123:                                              ; preds = %117
  call void @llvm.lifetime.end.p0(i64 4, ptr %8) #25
  br label %148

124:                                              ; preds = %117
  %125 = load ptr, ptr %3, align 8, !tbaa !63
  %126 = getelementptr inbounds nuw %struct.fast_fallback_inetsock_arg, ptr %125, i32 0, i32 12
  %127 = load i32, ptr %8, align 4, !tbaa !10
  %128 = sext i32 %127 to i64
  %129 = getelementptr inbounds [2 x ptr], ptr %126, i64 0, i64 %128
  %130 = load ptr, ptr %129, align 8, !tbaa !80
  %131 = icmp ne ptr %130, null
  br i1 %131, label %132, label %144

132:                                              ; preds = %124
  %133 = load i32, ptr %8, align 4, !tbaa !10
  %134 = sext i32 %133 to i64
  %135 = getelementptr inbounds [2 x i32], ptr %6, i64 0, i64 %134
  %136 = load i32, ptr %135, align 4, !tbaa !10
  %137 = icmp ne i32 %136, 0
  br i1 %137, label %138, label %144

138:                                              ; preds = %132
  %139 = load ptr, ptr %3, align 8, !tbaa !63
  %140 = getelementptr inbounds nuw %struct.fast_fallback_inetsock_arg, ptr %139, i32 0, i32 12
  %141 = load i32, ptr %8, align 4, !tbaa !10
  %142 = sext i32 %141 to i64
  %143 = getelementptr inbounds [2 x ptr], ptr %140, i64 0, i64 %142
  call void @free_fast_fallback_getaddrinfo_entry(ptr noundef %143)
  br label %144

144:                                              ; preds = %138, %132, %124
  br label %145

145:                                              ; preds = %144
  %146 = load i32, ptr %8, align 4, !tbaa !10
  %147 = add nsw i32 %146, 1
  store i32 %147, ptr %8, align 4, !tbaa !10
  br label %117, !llvm.loop !112

148:                                              ; preds = %123
  %149 = load ptr, ptr %4, align 8, !tbaa !110
  %150 = icmp ne ptr %149, null
  br i1 %150, label %151, label %155

151:                                              ; preds = %148
  %152 = load i32, ptr %5, align 4, !tbaa !10
  %153 = icmp ne i32 %152, 0
  br i1 %153, label %154, label %155

154:                                              ; preds = %151
  call void @free_fast_fallback_getaddrinfo_shared(ptr noundef %4)
  br label %155

155:                                              ; preds = %154, %151, %148
  call void @llvm.lifetime.end.p0(i64 8, ptr %6) #25
  call void @llvm.lifetime.end.p0(i64 4, ptr %5) #25
  br label %156

156:                                              ; preds = %155, %55
  call void @llvm.lifetime.start.p0(i64 4, ptr %9) #25
  call void @llvm.lifetime.start.p0(i64 4, ptr %10) #25
  store i32 0, ptr %10, align 4, !tbaa !10
  br label %157

157:                                              ; preds = %186, %156
  %158 = load i32, ptr %10, align 4, !tbaa !10
  %159 = load ptr, ptr %3, align 8, !tbaa !63
  %160 = getelementptr inbounds nuw %struct.fast_fallback_inetsock_arg, ptr %159, i32 0, i32 17
  %161 = load i32, ptr %160, align 4, !tbaa !77
  %162 = icmp slt i32 %158, %161
  br i1 %162, label %164, label %163

163:                                              ; preds = %157
  call void @llvm.lifetime.end.p0(i64 4, ptr %10) #25
  br label %189

164:                                              ; preds = %157
  %165 = load ptr, ptr %3, align 8, !tbaa !63
  %166 = getelementptr inbounds nuw %struct.fast_fallback_inetsock_arg, ptr %165, i32 0, i32 18
  %167 = load ptr, ptr %166, align 8, !tbaa !76
  %168 = load i32, ptr %10, align 4, !tbaa !10
  %169 = sext i32 %168 to i64
  %170 = getelementptr inbounds i32, ptr %167, i64 %169
  %171 = load i32, ptr %170, align 4, !tbaa !10
  store i32 %171, ptr %9, align 4, !tbaa !10
  %172 = load i32, ptr %9, align 4, !tbaa !10
  %173 = icmp sge i32 %172, 0
  br i1 %173, label %174, label %185

174:                                              ; preds = %164
  call void @llvm.lifetime.start.p0(i64 4, ptr %11) #25
  store i32 0, ptr %11, align 4, !tbaa !10
  call void @llvm.lifetime.start.p0(i64 4, ptr %12) #25
  store i32 4, ptr %12, align 4, !tbaa !10
  %175 = load i32, ptr %9, align 4, !tbaa !10
  %176 = call i32 @getsockopt(i32 noundef %175, i32 noundef 1, i32 noundef 4, ptr noundef %11, ptr noundef %12) #25
  %177 = load i32, ptr %11, align 4, !tbaa !10
  %178 = icmp eq i32 %177, 0
  br i1 %178, label %179, label %182

179:                                              ; preds = %174
  %180 = load i32, ptr %9, align 4, !tbaa !10
  %181 = call i32 @shutdown(i32 noundef %180, i32 noundef 2) #25
  br label %182

182:                                              ; preds = %179, %174
  %183 = load i32, ptr %9, align 4, !tbaa !10
  %184 = call i32 @close(i32 noundef %183)
  call void @llvm.lifetime.end.p0(i64 4, ptr %12) #25
  call void @llvm.lifetime.end.p0(i64 4, ptr %11) #25
  br label %185

185:                                              ; preds = %182, %164
  br label %186

186:                                              ; preds = %185
  %187 = load i32, ptr %10, align 4, !tbaa !10
  %188 = add nsw i32 %187, 1
  store i32 %188, ptr %10, align 4, !tbaa !10
  br label %157, !llvm.loop !113

189:                                              ; preds = %163
  %190 = load ptr, ptr %3, align 8, !tbaa !63
  %191 = getelementptr inbounds nuw %struct.fast_fallback_inetsock_arg, ptr %190, i32 0, i32 14
  %192 = getelementptr inbounds nuw %struct.rb_fdset_t, ptr %191, i32 0, i32 1
  %193 = load ptr, ptr %192, align 8, !tbaa !114
  %194 = icmp ne ptr %193, null
  br i1 %194, label %195, label %198

195:                                              ; preds = %189
  %196 = load ptr, ptr %3, align 8, !tbaa !63
  %197 = getelementptr inbounds nuw %struct.fast_fallback_inetsock_arg, ptr %196, i32 0, i32 14
  call void @rb_fd_term(ptr noundef %197)
  br label %198

198:                                              ; preds = %195, %189
  %199 = load ptr, ptr %3, align 8, !tbaa !63
  %200 = getelementptr inbounds nuw %struct.fast_fallback_inetsock_arg, ptr %199, i32 0, i32 15
  %201 = getelementptr inbounds nuw %struct.rb_fdset_t, ptr %200, i32 0, i32 1
  %202 = load ptr, ptr %201, align 8, !tbaa !115
  %203 = icmp ne ptr %202, null
  br i1 %203, label %204, label %207

204:                                              ; preds = %198
  %205 = load ptr, ptr %3, align 8, !tbaa !63
  %206 = getelementptr inbounds nuw %struct.fast_fallback_inetsock_arg, ptr %205, i32 0, i32 15
  call void @rb_fd_term(ptr noundef %206)
  br label %207

207:                                              ; preds = %204, %198
  %208 = load ptr, ptr %3, align 8, !tbaa !63
  %209 = getelementptr inbounds nuw %struct.fast_fallback_inetsock_arg, ptr %208, i32 0, i32 18
  %210 = load ptr, ptr %209, align 8, !tbaa !76
  %211 = icmp ne ptr %210, null
  br i1 %211, label %212, label %218

212:                                              ; preds = %207
  %213 = load ptr, ptr %3, align 8, !tbaa !63
  %214 = getelementptr inbounds nuw %struct.fast_fallback_inetsock_arg, ptr %213, i32 0, i32 18
  %215 = load ptr, ptr %214, align 8, !tbaa !76
  call void @free(ptr noundef %215) #25
  %216 = load ptr, ptr %3, align 8, !tbaa !63
  %217 = getelementptr inbounds nuw %struct.fast_fallback_inetsock_arg, ptr %216, i32 0, i32 18
  store ptr null, ptr %217, align 8, !tbaa !76
  br label %218

218:                                              ; preds = %212, %207
  call void @llvm.lifetime.end.p0(i64 4, ptr %9) #25
  call void @llvm.lifetime.end.p0(i64 8, ptr %4) #25
  call void @llvm.lifetime.end.p0(i64 8, ptr %3) #25
  ret i64 4
}