; Function Attrs: nounwind sspstrong uwtable
define internal noundef i64 @fast_fallback_inetsock_cleanup(i64 noundef %0) #0 {
  %2 = alloca ptr, align 8
  %3 = alloca [2 x i32], align 8
  %4 = alloca i32, align 4
  %5 = alloca i32, align 4
  %6 = inttoptr i64 %0 to ptr
  call void @llvm.lifetime.start.p0(i64 8, ptr nonnull %2) #19
  %7 = getelementptr inbounds nuw i8, ptr %6, i64 136
  %8 = load ptr, ptr %7, align 8, !tbaa !58
  store ptr %8, ptr %2, align 8, !tbaa !98
  %9 = getelementptr inbounds nuw i8, ptr %6, i64 32
  %10 = load ptr, ptr %9, align 8, !tbaa !30
  %.not = icmp eq ptr %10, null
  br i1 %.not, label %12, label %11

11:                                               ; preds = %1
  tail call void @rb_freeaddrinfo(ptr noundef nonnull %10) #19
  store ptr null, ptr %9, align 8, !tbaa !30
  br label %12

12:                                               ; preds = %11, %1
  %13 = getelementptr inbounds nuw i8, ptr %6, i64 56
  %14 = load ptr, ptr %13, align 8, !tbaa !33
  %.not54 = icmp eq ptr %14, null
  br i1 %.not54, label %16, label %15

15:                                               ; preds = %12
  tail call void @rb_freeaddrinfo(ptr noundef nonnull %14) #19
  store ptr null, ptr %13, align 8, !tbaa !33
  br label %16

16:                                               ; preds = %15, %12
  %17 = getelementptr inbounds nuw i8, ptr %6, i64 176
  %18 = load i32, ptr %17, align 8, !tbaa !57
  %.not55 = icmp eq i32 %18, -1
  br i1 %.not55, label %21, label %19

19:                                               ; preds = %16
  %20 = tail call i32 @close(i32 noundef %18) #19
  br label %21

21:                                               ; preds = %19, %16
  %.not56 = icmp eq ptr %8, null
  br i1 %.not56, label %64, label %22

22:                                               ; preds = %21
  %23 = load i32, ptr %8, align 8, !tbaa !6
  %.not57 = icmp eq i32 %23, -1
  br i1 %.not57, label %26, label %24

24:                                               ; preds = %22
  %25 = tail call i32 @close(i32 noundef %23) #19
  br label %26

26:                                               ; preds = %24, %22
  store i32 -1, ptr %8, align 8, !tbaa !6
  call void @llvm.lifetime.start.p0(i64 8, ptr nonnull %3) #19
  store i64 0, ptr %3, align 8
  %27 = getelementptr inbounds nuw i8, ptr %8, i64 24
  tail call void @rb_nativethread_lock_lock(ptr noundef nonnull %27) #19
  %28 = getelementptr inbounds nuw i8, ptr %6, i64 112
  %29 = load i32, ptr %28, align 8, !tbaa !41
  %30 = icmp sgt i32 %29, 0
  br i1 %30, label %.lr.ph, label %._crit_edge

.lr.ph:                                           ; preds = %26
  %31 = getelementptr inbounds nuw i8, ptr %6, i64 120
  %wide.trip.count = zext nneg i32 %29 to i64
  br label %39

._crit_edge:                                      ; preds = %49, %26
  %32 = getelementptr inbounds nuw i8, ptr %8, i64 4
  %33 = load i32, ptr %32, align 4, !tbaa !6
  %34 = add nsw i32 %33, -1
  store i32 %34, ptr %32, align 4, !tbaa !6
  %35 = icmp eq i32 %34, 0
  tail call void @rb_nativethread_lock_unlock(ptr noundef nonnull %27) #19
  %36 = load i32, ptr %28, align 8, !tbaa !41
  %37 = icmp sgt i32 %36, 0
  br i1 %37, label %.lr.ph67, label %._crit_edge68

.lr.ph67:                                         ; preds = %._crit_edge
  %38 = getelementptr inbounds nuw i8, ptr %6, i64 120
  br label %50

39:                                               ; preds = %.lr.ph, %49
  %indvars.iv = phi i64 [ 0, %.lr.ph ], [ %indvars.iv.next, %49 ]
  %40 = getelementptr inbounds nuw [2 x ptr], ptr %31, i64 0, i64 %indvars.iv
  %41 = load ptr, ptr %40, align 8, !tbaa !62
  %.not63 = icmp eq ptr %41, null
  br i1 %.not63, label %49, label %42

42:                                               ; preds = %39
  %43 = getelementptr inbounds nuw i8, ptr %41, i64 8
  %44 = load i32, ptr %43, align 8, !tbaa !73
  %45 = add nsw i32 %44, -1
  store i32 %45, ptr %43, align 8, !tbaa !73
  %46 = icmp eq i32 %45, 0
  br i1 %46, label %47, label %49

47:                                               ; preds = %42
  %48 = getelementptr inbounds nuw [2 x i32], ptr %3, i64 0, i64 %indvars.iv
  store i32 1, ptr %48, align 4, !tbaa !6
  br label %49

49:                                               ; preds = %39, %42, %47
  %indvars.iv.next = add nuw nsw i64 %indvars.iv, 1
  %exitcond.not = icmp eq i64 %indvars.iv.next, %wide.trip.count
  br i1 %exitcond.not, label %._crit_edge, label %39, !llvm.loop !99

._crit_edge68:                                    ; preds = %58, %._crit_edge
  br i1 %35, label %62, label %63

50:                                               ; preds = %.lr.ph67, %58
  %51 = phi i32 [ %36, %.lr.ph67 ], [ %59, %58 ]
  %indvars.iv74 = phi i64 [ 0, %.lr.ph67 ], [ %indvars.iv.next75, %58 ]
  %52 = getelementptr inbounds nuw [2 x ptr], ptr %38, i64 0, i64 %indvars.iv74
  %53 = load ptr, ptr %52, align 8, !tbaa !62
  %.not61 = icmp eq ptr %53, null
  br i1 %.not61, label %58, label %54

54:                                               ; preds = %50
  %55 = getelementptr inbounds nuw [2 x i32], ptr %3, i64 0, i64 %indvars.iv74
  %56 = load i32, ptr %55, align 4, !tbaa !6
  %.not62 = icmp eq i32 %56, 0
  br i1 %.not62, label %58, label %57

57:                                               ; preds = %54
  tail call void @free_fast_fallback_getaddrinfo_entry(ptr noundef nonnull %52) #19
  %.pre = load i32, ptr %28, align 8, !tbaa !41
  br label %58

58:                                               ; preds = %50, %54, %57
  %59 = phi i32 [ %51, %50 ], [ %51, %54 ], [ %.pre, %57 ]
  %indvars.iv.next75 = add nuw nsw i64 %indvars.iv74, 1
  %60 = sext i32 %59 to i64
  %61 = icmp slt i64 %indvars.iv.next75, %60
  br i1 %61, label %50, label %._crit_edge68, !llvm.loop !100

62:                                               ; preds = %._crit_edge68
  call void @free_fast_fallback_getaddrinfo_shared(ptr noundef nonnull %2) #19
  br label %63

63:                                               ; preds = %62, %._crit_edge68
  call void @llvm.lifetime.end.p0(i64 8, ptr nonnull %3) #19
  br label %64

64:                                               ; preds = %63, %21
  %65 = getelementptr inbounds nuw i8, ptr %6, i64 180
  %66 = load i32, ptr %65, align 4, !tbaa !56
  %67 = icmp sgt i32 %66, 0
  br i1 %67, label %.lr.ph71, label %._crit_edge72

.lr.ph71:                                         ; preds = %64
  %68 = getelementptr inbounds nuw i8, ptr %6, i64 184
  br label %71

._crit_edge72:                                    ; preds = %85, %64
  %69 = getelementptr inbounds nuw i8, ptr %6, i64 152
  %70 = load ptr, ptr %69, align 8, !tbaa !101
  %.not58 = icmp eq ptr %70, null
  br i1 %.not58, label %91, label %89

71:                                               ; preds = %.lr.ph71, %85
  %72 = phi i32 [ %66, %.lr.ph71 ], [ %86, %85 ]
  %indvars.iv77 = phi i64 [ 0, %.lr.ph71 ], [ %indvars.iv.next78, %85 ]
  %73 = load ptr, ptr %68, align 8, !tbaa !55
  %74 = getelementptr inbounds nuw i32, ptr %73, i64 %indvars.iv77
  %75 = load i32, ptr %74, align 4, !tbaa !6
  %76 = icmp sgt i32 %75, -1
  br i1 %76, label %77, label %85

77:                                               ; preds = %71
  call void @llvm.lifetime.start.p0(i64 4, ptr nonnull %4) #19
  store i32 0, ptr %4, align 4, !tbaa !6
  call void @llvm.lifetime.start.p0(i64 4, ptr nonnull %5) #19
  store i32 4, ptr %5, align 4, !tbaa !6
  %78 = call i32 @getsockopt(i32 noundef %75, i32 noundef 1, i32 noundef 4, ptr noundef nonnull %4, ptr noundef nonnull %5) #19
  %79 = load i32, ptr %4, align 4, !tbaa !6
  %80 = icmp eq i32 %79, 0
  br i1 %80, label %81, label %83

81:                                               ; preds = %77
  %82 = call i32 @shutdown(i32 noundef %75, i32 noundef 2) #19
  br label %83

83:                                               ; preds = %81, %77
  %84 = call i32 @close(i32 noundef %75) #19
  call void @llvm.lifetime.end.p0(i64 4, ptr nonnull %5) #19
  call void @llvm.lifetime.end.p0(i64 4, ptr nonnull %4) #19
  %.pre80 = load i32, ptr %65, align 4, !tbaa !56
  br label %85

85:                                               ; preds = %71, %83
  %86 = phi i32 [ %72, %71 ], [ %.pre80, %83 ]
  %indvars.iv.next78 = add nuw nsw i64 %indvars.iv77, 1
  %87 = sext i32 %86 to i64
  %88 = icmp slt i64 %indvars.iv.next78, %87
  br i1 %88, label %71, label %._crit_edge72, !llvm.loop !102

89:                                               ; preds = %._crit_edge72
  %90 = getelementptr inbounds nuw i8, ptr %6, i64 144
  call void @rb_fd_term(ptr noundef nonnull %90) #19
  br label %91

91:                                               ; preds = %89, %._crit_edge72
  %92 = getelementptr inbounds nuw i8, ptr %6, i64 168
  %93 = load ptr, ptr %92, align 8, !tbaa !103
  %.not59 = icmp eq ptr %93, null
  br i1 %.not59, label %96, label %94

94:                                               ; preds = %91
  %95 = getelementptr inbounds nuw i8, ptr %6, i64 160
  call void @rb_fd_term(ptr noundef nonnull %95) #19
  br label %96

96:                                               ; preds = %94, %91
  %97 = getelementptr inbounds nuw i8, ptr %6, i64 184
  %98 = load ptr, ptr %97, align 8, !tbaa !55
  %.not60 = icmp eq ptr %98, null
  br i1 %.not60, label %100, label %99

99:                                               ; preds = %96
  call void @free(ptr noundef nonnull %98) #19
  store ptr null, ptr %97, align 8, !tbaa !55
  br label %100

100:                                              ; preds = %99, %96
  call void @llvm.lifetime.end.p0(i64 8, ptr nonnull %2) #19
  ret i64 4
}